; Function Attrs: mustprogress nounwind uwtable
define hidden noundef ptr @_ZNK13ZBarrierSetC220create_barrier_stateEP5Arena(ptr nocapture nonnull readnone align 8 %0, ptr noundef %1) unnamed_addr #0 align 2 {
  %3 = tail call noundef ptr @_ZN8ArenaObjnwEmP5Arena(i64 noundef 48, ptr noundef %1) #14
  %4 = icmp eq ptr %3, null
  br i1 %4, label %32, label %5

5:                                                ; preds = %2
  store ptr getelementptr inbounds inrange(-16, 16) (i8, ptr @_ZTV17BarrierSetC2State, i64 16), ptr %3, align 8
  %6 = getelementptr inbounds i8, ptr %3, i64 8
  store ptr %1, ptr %6, align 8
  %7 = getelementptr inbounds i8, ptr %3, i64 16
  store i32 4, ptr %7, align 8
  %8 = getelementptr inbounds i8, ptr %1, i64 40
  %9 = load ptr, ptr %8, align 8
  %10 = getelementptr inbounds i8, ptr %1, i64 32
  %11 = load ptr, ptr %10, align 8
  %12 = ptrtoint ptr %9 to i64
  %13 = ptrtoint ptr %11 to i64
  %14 = sub i64 %12, %13
  %.not.i.i.i.i.i = icmp ult i64 %14, 32
  br i1 %.not.i.i.i.i.i, label %17, label %15

15:                                               ; preds = %5
  %16 = getelementptr inbounds i8, ptr %11, i64 32
  store ptr %16, ptr %10, align 8
  br label %_ZN18ZBarrierSetC2StateC2EP5Arena.exit

17:                                               ; preds = %5
  %18 = tail call noundef ptr @_ZN5Arena4growEmN17AllocFailStrategy13AllocFailEnumE(ptr noundef nonnull align 8 dereferenceable(48) %1, i64 noundef 32, i32 noundef 0) #14
  br label %_ZN18ZBarrierSetC2StateC2EP5Arena.exit

_ZN18ZBarrierSetC2StateC2EP5Arena.exit:           ; preds = %15, %17
  %.0.i.i.i.i.i = phi ptr [ %11, %15 ], [ %18, %17 ]
  %19 = getelementptr inbounds i8, ptr %3, i64 24
  store ptr %.0.i.i.i.i.i, ptr %19, align 8
  %20 = load i32, ptr %7, align 8
  %21 = zext i32 %20 to i64
  %22 = shl nuw nsw i64 %21, 3
  tail call void @llvm.memset.p0.i64(ptr align 1 %.0.i.i.i.i.i, i8 0, i64 %22, i1 false)
  store ptr getelementptr inbounds inrange(-16, 16) (i8, ptr @_ZTV18ZBarrierSetC2State, i64 16), ptr %3, align 8
  %23 = getelementptr inbounds i8, ptr %3, i64 32
  %24 = tail call noundef ptr @_ZN6AnyObjnwEmP5Arena(i64 noundef 24, ptr noundef nonnull %1) #14
  %25 = tail call noundef ptr @_ZN27GrowableArrayArenaAllocator8allocateEiiP5Arena(i32 noundef 8, i32 noundef 8, ptr noundef nonnull %1) #14
  store i32 0, ptr %24, align 4
  %26 = getelementptr inbounds i8, ptr %24, i64 4
  store i32 8, ptr %26, align 4
  %27 = getelementptr inbounds i8, ptr %24, i64 8
  store ptr %25, ptr %27, align 8
  tail call void @llvm.memset.p0.i64(ptr noundef nonnull align 8 dereferenceable(64) %25, i8 0, i64 64, i1 false)
  %28 = getelementptr inbounds i8, ptr %24, i64 16
  %29 = ptrtoint ptr %1 to i64
  store i64 %29, ptr %28, align 8
  store ptr %24, ptr %23, align 8
  %30 = getelementptr inbounds i8, ptr %3, i64 40
  store i32 0, ptr %30, align 8
  %31 = getelementptr inbounds i8, ptr %3, i64 44
  store i32 0, ptr %31, align 4
  br label %32

32:                                               ; preds = %_ZN18ZBarrierSetC2StateC2EP5Arena.exit, %2
  ret ptr %3
}